; ModuleID = 'probe1.21368af7487d9d7c-cgu.0'
source_filename = "probe1.21368af7487d9d7c-cgu.0"
target datalayout = "e-m:e-p:64:64-i64:64-n32:64-S128"
target triple = "sbf"

; core::f64::<impl f64>::to_int_unchecked
; Function Attrs: inlinehint nounwind
define hidden i32 @"_ZN4core3f6421_$LT$impl$u20$f64$GT$16to_int_unchecked17h2dc4cdeabba1886dE"(double %self) unnamed_addr #0 {
start:
; call <f64 as core::convert::num::FloatToInt<i32>>::to_int_unchecked
  %_0 = call i32 @"_ZN65_$LT$f64$u20$as$u20$core..convert..num..FloatToInt$LT$i32$GT$$GT$16to_int_unchecked17h81ad660cdb93e311E"(double %self) #2
  ret i32 %_0
}

; <f64 as core::convert::num::FloatToInt<i32>>::to_int_unchecked
; Function Attrs: inlinehint nounwind
define internal i32 @"_ZN65_$LT$f64$u20$as$u20$core..convert..num..FloatToInt$LT$i32$GT$$GT$16to_int_unchecked17h81ad660cdb93e311E"(double %self) unnamed_addr #0 {
start:
  %0 = alloca [4 x i8], align 4
  %1 = fptosi double %self to i32
  store i32 %1, ptr %0, align 4
  %_0 = load i32, ptr %0, align 4
  ret i32 %_0
}

; probe1::probe
; Function Attrs: nounwind
define hidden void @_ZN6probe15probe17h42e9426d757b8f39E() unnamed_addr #1 {
start:
; call core::f64::<impl f64>::to_int_unchecked
  %_1 = call i32 @"_ZN4core3f6421_$LT$impl$u20$f64$GT$16to_int_unchecked17h2dc4cdeabba1886dE"(double 1.000000e+00) #2
  ret void
}

attributes #0 = { inlinehint nounwind "target-cpu"="generic" "target-features"="+solana" }
attributes #1 = { nounwind "target-cpu"="generic" "target-features"="+solana" }
attributes #2 = { nounwind }

!llvm.module.flags = !{!0}
!llvm.ident = !{!1}

!0 = !{i32 8, !"PIC Level", i32 2}
!1 = !{!"rustc version 1.79.0-dev"}
